; Function Attrs: mustprogress uwtable
define void @_ZN6icu_7522TransliteratorRegistry3putERKNS_13UnicodeStringES3_aaR10UErrorCode(ptr noundef nonnull align 8 dereferenceable(312) %this, ptr noundef nonnull align 8 dereferenceable(64) %ID, ptr noundef nonnull align 8 dereferenceable(64) %alias, i8 noundef signext %readonlyAliasAlias, i8 noundef signext %visible, ptr nocapture noundef nonnull readnone align 4 dereferenceable(4) %0) local_unnamed_addr #1 align 2 personality ptr @__gxx_personality_v0 {
entry:
  %agg.tmp = alloca %"class.icu_75::ConstChar16Ptr", align 8
  %call = tail call noundef ptr @_ZN6icu_757UMemorynwEm(i64 noundef 104) #15
  %new.isnull = icmp eq ptr %call, null
  br i1 %new.isnull, label %if.end10, label %new.notnull

new.notnull:                                      ; preds = %entry
  invoke void @_ZN6icu_7519TransliteratorEntryC1Ev(ptr noundef nonnull align 8 dereferenceable(104) %call)
          to label %if.then unwind label %lpad

if.then:                                          ; preds = %new.notnull
  store i32 6, ptr %call, align 8
  %tobool.not = icmp eq i8 %readonlyAliasAlias, 0
  %stringArg8 = getelementptr inbounds i8, ptr %call, i64 8
  br i1 %tobool.not, label %if.else, label %if.then3

if.then3:                                         ; preds = %if.then
  %fUnion.i = getelementptr inbounds i8, ptr %alias, i64 8
  %1 = load i16, ptr %fUnion.i, align 8
  %conv1.i = zext i16 %1 to i32
  %and.i = and i32 %conv1.i, 17
  %tobool.not.i = icmp eq i32 %and.i, 0
  br i1 %tobool.not.i, label %if.else.i, label %_ZNK6icu_7513UnicodeString9getBufferEv.exit

if.else.i:                                        ; preds = %if.then3
  %and5.i = and i32 %conv1.i, 2
  %tobool6.not.i = icmp eq i32 %and5.i, 0
  br i1 %tobool6.not.i, label %if.else9.i, label %if.then7.i

if.then7.i:                                       ; preds = %if.else.i
  %fBuffer.i = getelementptr inbounds i8, ptr %alias, i64 10
  br label %_ZNK6icu_7513UnicodeString9getBufferEv.exit

if.else9.i:                                       ; preds = %if.else.i
  %fArray.i = getelementptr inbounds i8, ptr %alias, i64 24
  %2 = load ptr, ptr %fArray.i, align 8
  br label %_ZNK6icu_7513UnicodeString9getBufferEv.exit

_ZNK6icu_7513UnicodeString9getBufferEv.exit:      ; preds = %if.then3, %if.then7.i, %if.else9.i
  %retval.0.i = phi ptr [ %fBuffer.i, %if.then7.i ], [ %2, %if.else9.i ], [ null, %if.then3 ]
  store ptr %retval.0.i, ptr %agg.tmp, align 8
  %call7 = invoke noundef nonnull align 8 dereferenceable(64) ptr @_ZN6icu_7513UnicodeString5setToEaNS_14ConstChar16PtrEi(ptr noundef nonnull align 8 dereferenceable(64) %stringArg8, i8 noundef signext 1, ptr noundef nonnull %agg.tmp, i32 noundef -1)
          to label %invoke.cont6 unwind label %lpad5

invoke.cont6:                                     ; preds = %_ZNK6icu_7513UnicodeString9getBufferEv.exit
  %3 = load ptr, ptr %agg.tmp, align 8
  call void asm sideeffect "", "rm,~{memory},~{dirflag},~{fpsr},~{flags}"(ptr %3) #15, !srcloc !9
  br label %if.end

lpad:                                             ; preds = %new.notnull
  %4 = landingpad { ptr, i32 }
          cleanup
  tail call void @_ZN6icu_757UMemorydlEPv(ptr noundef nonnull %call) #15
  br label %eh.resume

lpad5:                                            ; preds = %_ZNK6icu_7513UnicodeString9getBufferEv.exit
  %5 = landingpad { ptr, i32 }
          cleanup
  %6 = load ptr, ptr %agg.tmp, align 8
  call void asm sideeffect "", "rm,~{memory},~{dirflag},~{fpsr},~{flags}"(ptr %6) #15, !srcloc !9
  br label %eh.resume

if.else:                                          ; preds = %if.then
  %call9 = tail call noundef nonnull align 8 dereferenceable(64) ptr @_ZN6icu_7513UnicodeStringaSERKS0_(ptr noundef nonnull align 8 dereferenceable(64) %stringArg8, ptr noundef nonnull align 8 dereferenceable(64) %alias)
  br label %if.end

if.end:                                           ; preds = %if.else, %invoke.cont6
  call void @_ZN6icu_7522TransliteratorRegistry13registerEntryERKNS_13UnicodeStringEPNS_19TransliteratorEntryEa(ptr noundef nonnull align 8 dereferenceable(312) %this, ptr noundef nonnull align 8 dereferenceable(64) %ID, ptr noundef nonnull %call, i8 noundef signext %visible)
  br label %if.end10

if.end10:                                         ; preds = %entry, %if.end
  ret void

eh.resume:                                        ; preds = %lpad, %lpad5
  %.pn = phi { ptr, i32 } [ %5, %lpad5 ], [ %4, %lpad ]
  resume { ptr, i32 } %.pn
}